target datalayout = "e-m:e-p270:32:32-p271:32:32-p272:64:64-i64:64-i128:128-f80:128-n8:16:32:64-S128"
target triple = "x86_64-pc-linux-gnu"

%struct.ML_KEM_VINFO = type { ptr, i64, i64, i64, i64, i64, i64, i64, i32, i32, i32, i32, i32, i32 }
%struct.ossl_ml_kem_key_st = type { ptr, ptr, ptr, ptr, ptr, ptr, ptr, ptr, ptr, ptr, ptr, ptr, ptr, i32, i32, [64 x i8], ptr }
%struct.ossl_ml_kem_scalar_st = type { [256 x i16] }

; Function Attrs: nounwind uwtable
define i32 @ossl_ml_kem_encap_seed(ptr noundef %0, i64 noundef %1, ptr noundef %2, i64 noundef %3, ptr noundef %4, i64 noundef %5, ptr noundef %6) #0 {
  %8 = alloca i32, align 4
  %9 = alloca ptr, align 8
  %10 = alloca i64, align 8
  %11 = alloca ptr, align 8
  %12 = alloca i64, align 8
  %13 = alloca ptr, align 8
  %14 = alloca i64, align 8
  %15 = alloca ptr, align 8
  %16 = alloca ptr, align 8
  %17 = alloca ptr, align 8
  %18 = alloca i32, align 4
  %19 = alloca i32, align 4
  %20 = alloca [4 x %struct.ossl_ml_kem_scalar_st], align 16
  %21 = alloca [6 x %struct.ossl_ml_kem_scalar_st], align 16
  %22 = alloca [8 x %struct.ossl_ml_kem_scalar_st], align 16
  store ptr %0, ptr %9, align 8, !tbaa !25
  store i64 %1, ptr %10, align 8, !tbaa !42
  store ptr %2, ptr %11, align 8, !tbaa !25
  store i64 %3, ptr %12, align 8, !tbaa !42
  store ptr %4, ptr %13, align 8, !tbaa !25
  store i64 %5, ptr %14, align 8, !tbaa !42
  store ptr %6, ptr %15, align 8, !tbaa !3
  call void @llvm.lifetime.start.p0(i64 8, ptr %16) #8
  call void @llvm.lifetime.start.p0(i64 8, ptr %17) #8
  call void @llvm.lifetime.start.p0(i64 4, ptr %18) #8
  store i32 0, ptr %18, align 4, !tbaa !23
  %23 = load ptr, ptr %15, align 8, !tbaa !3
  %24 = icmp eq ptr %23, null
  br i1 %24, label %30, label %25

25:                                               ; preds = %7
  %26 = load ptr, ptr %15, align 8, !tbaa !3
  %27 = getelementptr inbounds nuw %struct.ossl_ml_kem_key_st, ptr %26, i32 0, i32 8
  %28 = load ptr, ptr %27, align 8, !tbaa !8
  %29 = icmp ne ptr %28, null
  br i1 %29, label %31, label %30

30:                                               ; preds = %25, %7
  store i32 0, ptr %8, align 4
  store i32 1, ptr %19, align 4
  br label %93

31:                                               ; preds = %25
  %32 = load ptr, ptr %15, align 8, !tbaa !3
  %33 = getelementptr inbounds nuw %struct.ossl_ml_kem_key_st, ptr %32, i32 0, i32 0
  %34 = load ptr, ptr %33, align 8, !tbaa !16
  store ptr %34, ptr %16, align 8, !tbaa !26
  %35 = load ptr, ptr %9, align 8, !tbaa !25
  %36 = icmp eq ptr %35, null
  br i1 %36, label %58, label %37

37:                                               ; preds = %31
  %38 = load i64, ptr %10, align 8, !tbaa !42
  %39 = load ptr, ptr %16, align 8, !tbaa !26
  %40 = getelementptr inbounds nuw %struct.ML_KEM_VINFO, ptr %39, i32 0, i32 5
  %41 = load i64, ptr %40, align 8, !tbaa !49
  %42 = icmp ne i64 %38, %41
  br i1 %42, label %58, label %43

43:                                               ; preds = %37
  %44 = load ptr, ptr %11, align 8, !tbaa !25
  %45 = icmp eq ptr %44, null
  br i1 %45, label %58, label %46

46:                                               ; preds = %43
  %47 = load i64, ptr %12, align 8, !tbaa !42
  %48 = icmp ne i64 %47, 32
  br i1 %48, label %58, label %49

49:                                               ; preds = %46
  %50 = load ptr, ptr %13, align 8, !tbaa !25
  %51 = icmp eq ptr %50, null
  br i1 %51, label %58, label %52

52:                                               ; preds = %49
  %53 = load i64, ptr %14, align 8, !tbaa !42
  %54 = icmp ne i64 %53, 32
  br i1 %54, label %58, label %55

55:                                               ; preds = %52
  %56 = call ptr @EVP_MD_CTX_new()
  store ptr %56, ptr %17, align 8, !tbaa !44
  %57 = icmp eq ptr %56, null
  br i1 %57, label %58, label %59

58:                                               ; preds = %55, %52, %49, %46, %43, %37, %31
  store i32 0, ptr %8, align 4
  store i32 1, ptr %19, align 4
  br label %93

59:                                               ; preds = %55
  %60 = load ptr, ptr %16, align 8, !tbaa !26
  %61 = getelementptr inbounds nuw %struct.ML_KEM_VINFO, ptr %60, i32 0, i32 8
  %62 = load i32, ptr %61, align 8, !tbaa !47
  switch i32 %62, label %90 [
    i32 1454, label %63
    i32 1455, label %72
    i32 1456, label %81
  ]

63:                                               ; preds = %59
  call void @llvm.lifetime.start.p0(i64 2048, ptr %20) #8
  %64 = load ptr, ptr %9, align 8, !tbaa !25
  %65 = load ptr, ptr %11, align 8, !tbaa !25
  %66 = load ptr, ptr %13, align 8, !tbaa !25
  %67 = getelementptr inbounds [4 x %struct.ossl_ml_kem_scalar_st], ptr %20, i64 0, i64 0
  %68 = load ptr, ptr %17, align 8, !tbaa !44
  %69 = load ptr, ptr %15, align 8, !tbaa !3
  %70 = call i32 @encap(ptr noundef %64, ptr noundef %65, ptr noundef %66, ptr noundef %67, ptr noundef %68, ptr noundef %69)
  store i32 %70, ptr %18, align 4, !tbaa !23
  %71 = getelementptr inbounds [4 x %struct.ossl_ml_kem_scalar_st], ptr %20, i64 0, i64 0
  call void @OPENSSL_cleanse(ptr noundef %71, i64 noundef 2048)
  store i32 2, ptr %19, align 4
  call void @llvm.lifetime.end.p0(i64 2048, ptr %20) #8
  br label %90

72:                                               ; preds = %59
  call void @llvm.lifetime.start.p0(i64 3072, ptr %21) #8
  %73 = load ptr, ptr %9, align 8, !tbaa !25
  %74 = load ptr, ptr %11, align 8, !tbaa !25
  %75 = load ptr, ptr %13, align 8, !tbaa !25
  %76 = getelementptr inbounds [6 x %struct.ossl_ml_kem_scalar_st], ptr %21, i64 0, i64 0
  %77 = load ptr, ptr %17, align 8, !tbaa !44
  %78 = load ptr, ptr %15, align 8, !tbaa !3
  %79 = call i32 @encap(ptr noundef %73, ptr noundef %74, ptr noundef %75, ptr noundef %76, ptr noundef %77, ptr noundef %78)
  store i32 %79, ptr %18, align 4, !tbaa !23
  %80 = getelementptr inbounds [6 x %struct.ossl_ml_kem_scalar_st], ptr %21, i64 0, i64 0
  call void @OPENSSL_cleanse(ptr noundef %80, i64 noundef 3072)
  store i32 2, ptr %19, align 4
  call void @llvm.lifetime.end.p0(i64 3072, ptr %21) #8
  br label %90

81:                                               ; preds = %59
  call void @llvm.lifetime.start.p0(i64 4096, ptr %22) #8
  %82 = load ptr, ptr %9, align 8, !tbaa !25
  %83 = load ptr, ptr %11, align 8, !tbaa !25
  %84 = load ptr, ptr %13, align 8, !tbaa !25
  %85 = getelementptr inbounds [8 x %struct.ossl_ml_kem_scalar_st], ptr %22, i64 0, i64 0
  %86 = load ptr, ptr %17, align 8, !tbaa !44
  %87 = load ptr, ptr %15, align 8, !tbaa !3
  %88 = call i32 @encap(ptr noundef %82, ptr noundef %83, ptr noundef %84, ptr noundef %85, ptr noundef %86, ptr noundef %87)
  store i32 %88, ptr %18, align 4, !tbaa !23
  %89 = getelementptr inbounds [8 x %struct.ossl_ml_kem_scalar_st], ptr %22, i64 0, i64 0
  call void @OPENSSL_cleanse(ptr noundef %89, i64 noundef 4096)
  store i32 2, ptr %19, align 4
  call void @llvm.lifetime.end.p0(i64 4096, ptr %22) #8
  br label %90

90:                                               ; preds = %59, %81, %72, %63
  %91 = load ptr, ptr %17, align 8, !tbaa !44
  call void @EVP_MD_CTX_free(ptr noundef %91)
  %92 = load i32, ptr %18, align 4, !tbaa !23
  store i32 %92, ptr %8, align 4
  store i32 1, ptr %19, align 4
  br label %93

93:                                               ; preds = %90, %58, %30
  call void @llvm.lifetime.end.p0(i64 4, ptr %18) #8
  call void @llvm.lifetime.end.p0(i64 8, ptr %17) #8
  call void @llvm.lifetime.end.p0(i64 8, ptr %16) #8
  %94 = load i32, ptr %8, align 4
  ret i32 %94
}