; Function Attrs: nounwind uwtable
define range(i32 0, 2) i32 @ossl_ml_kem_encap_seed(ptr noundef writeonly captures(address_is_null) %0, i64 noundef %1, ptr noundef writeonly captures(address_is_null) %2, i64 noundef %3, ptr noundef readonly captures(address_is_null) %4, i64 noundef %5, ptr noundef %6) local_unnamed_addr #0 {
  %8 = alloca [4 x %struct.ossl_ml_kem_scalar_st], align 16
  %9 = alloca [6 x %struct.ossl_ml_kem_scalar_st], align 16
  %10 = alloca [8 x %struct.ossl_ml_kem_scalar_st], align 16
  %11 = icmp eq ptr %6, null
  br i1 %11, label %39, label %12

12:                                               ; preds = %7
  %13 = getelementptr inbounds nuw i8, ptr %6, i64 64
  %14 = load ptr, ptr %13, align 8, !tbaa !3
  %.not = icmp eq ptr %14, null
  br i1 %.not, label %39, label %15

15:                                               ; preds = %12
  %16 = load ptr, ptr %6, align 8, !tbaa !14
  %17 = icmp eq ptr %0, null
  br i1 %17, label %39, label %18

18:                                               ; preds = %15
  %19 = getelementptr inbounds nuw i8, ptr %16, i64 40
  %20 = load i64, ptr %19, align 8, !tbaa !55
  %21 = icmp ne i64 %1, %20
  %22 = icmp eq ptr %2, null
  %or.cond = or i1 %22, %21
  %23 = icmp ne i64 %3, 32
  %or.cond3 = or i1 %23, %or.cond
  %24 = icmp eq ptr %4, null
  %or.cond5 = or i1 %24, %or.cond3
  %25 = icmp ne i64 %5, 32
  %or.cond7 = or i1 %25, %or.cond5
  br i1 %or.cond7, label %39, label %26

26:                                               ; preds = %18
  %27 = tail call ptr @EVP_MD_CTX_new() #13
  %28 = icmp eq ptr %27, null
  br i1 %28, label %39, label %29

29:                                               ; preds = %26
  %30 = getelementptr inbounds nuw i8, ptr %16, i64 64
  %31 = load i32, ptr %30, align 8, !tbaa !45
  switch i32 %31, label %38 [
    i32 1454, label %32
    i32 1455, label %34
    i32 1456, label %36
  ]

32:                                               ; preds = %29
  call void @llvm.lifetime.start.p0(i64 2048, ptr nonnull %8) #13
  %33 = call fastcc i32 @encap(ptr noundef %0, ptr noundef %2, ptr noundef %4, ptr noundef %8, ptr noundef %27, ptr noundef %6)
  call void @OPENSSL_cleanse(ptr noundef nonnull %8, i64 noundef 2048) #13
  call void @llvm.lifetime.end.p0(i64 2048, ptr nonnull %8) #13
  br label %38

34:                                               ; preds = %29
  call void @llvm.lifetime.start.p0(i64 3072, ptr nonnull %9) #13
  %35 = call fastcc i32 @encap(ptr noundef %0, ptr noundef %2, ptr noundef %4, ptr noundef %9, ptr noundef %27, ptr noundef %6)
  call void @OPENSSL_cleanse(ptr noundef nonnull %9, i64 noundef 3072) #13
  call void @llvm.lifetime.end.p0(i64 3072, ptr nonnull %9) #13
  br label %38

36:                                               ; preds = %29
  call void @llvm.lifetime.start.p0(i64 4096, ptr nonnull %10) #13
  %37 = call fastcc i32 @encap(ptr noundef %0, ptr noundef %2, ptr noundef %4, ptr noundef %10, ptr noundef %27, ptr noundef %6)
  call void @OPENSSL_cleanse(ptr noundef nonnull %10, i64 noundef 4096) #13
  call void @llvm.lifetime.end.p0(i64 4096, ptr nonnull %10) #13
  br label %38

38:                                               ; preds = %36, %34, %32, %29
  %.0 = phi i32 [ 0, %29 ], [ %37, %36 ], [ %35, %34 ], [ %33, %32 ]
  call void @EVP_MD_CTX_free(ptr noundef nonnull %27) #13
  br label %39

39:                                               ; preds = %15, %18, %26, %7, %12, %38
  %.035 = phi i32 [ %.0, %38 ], [ 0, %12 ], [ 0, %7 ], [ 0, %26 ], [ 0, %18 ], [ 0, %15 ]
  ret i32 %.035
}